; Function Attrs: nounwind uwtable
define dso_local ptr @PyModule_GetState(ptr noundef readonly captures(none) %0) local_unnamed_addr #0 {
  %2 = getelementptr i8, ptr %0, i64 8
  %.val = load ptr, ptr %2, align 8, !tbaa !4
  %.not.i = icmp eq ptr %.val, @PyModule_Type
  br i1 %.not.i, label %PyObject_TypeCheck.exit.thread, label %PyObject_TypeCheck.exit

PyObject_TypeCheck.exit:                          ; preds = %1
  %3 = tail call i32 @PyType_IsSubtype(ptr noundef %.val, ptr noundef nonnull @PyModule_Type) #8
  %.not5 = icmp eq i32 %3, 0
  br i1 %.not5, label %4, label %PyObject_TypeCheck.exit.thread

4:                                                ; preds = %PyObject_TypeCheck.exit
  %5 = tail call i32 @PyErr_BadArgument() #8
  br label %7

PyObject_TypeCheck.exit.thread:                   ; preds = %1, %PyObject_TypeCheck.exit
  %6 = getelementptr i8, ptr %0, i64 32
  %.val3 = load ptr, ptr %6, align 8, !tbaa !40
  br label %7

7:                                                ; preds = %PyObject_TypeCheck.exit.thread, %4
  %.0 = phi ptr [ %.val3, %PyObject_TypeCheck.exit.thread ], [ null, %4 ]
  ret ptr %.0
}